target datalayout = "e-m:e-p270:32:32-p271:32:32-p272:64:64-i64:64-i128:128-f80:128-n8:16:32:64-S128"
target triple = "x86_64-pc-linux-gnu"

%struct.H5EA__test_ctx_t = type { i32, ptr }
%struct.H5EA__ctx_cb_t = type { ptr, ptr }

@.str.1 = private unnamed_addr constant [102 x i8] c"generated/home/dtcxzyw/WorkSpace/Projects/compilers/llvm-opt-benchmark/bench/hdf5/hdf5/src/H5EAtest.c\00", align 1
@H5E_EARRAY_g = external global i64, align 8
@__func__.H5EA__test_encode = private unnamed_addr constant [18 x i8] c"H5EA__test_encode\00", align 1
@H5E_BADVALUE_g = external global i64, align 8
@.str.4 = private unnamed_addr constant [48 x i8] c"extensible array testing callback action failed\00", align 1

; Function Attrs: nounwind uwtable
define internal i32 @H5EA__test_encode(ptr noundef %0, ptr noundef %1, i64 noundef %2, ptr noundef %3) #0 {
  %5 = alloca ptr, align 8
  %6 = alloca ptr, align 8
  %7 = alloca i64, align 8
  %8 = alloca ptr, align 8
  %9 = alloca ptr, align 8
  %10 = alloca ptr, align 8
  %11 = alloca i32, align 4
  %12 = alloca i8, align 1
  %13 = alloca i64, align 8
  %14 = alloca i64, align 8
  %15 = alloca ptr, align 8
  store ptr %0, ptr %5, align 8
  store ptr %1, ptr %6, align 8
  store i64 %2, ptr %7, align 8
  store ptr %3, ptr %8, align 8
  %16 = load ptr, ptr %8, align 8
  store ptr %16, ptr %9, align 8
  %17 = load ptr, ptr %6, align 8
  store ptr %17, ptr %10, align 8
  store i32 0, ptr %11, align 4
  store i8 0, ptr %12, align 1
  %18 = load ptr, ptr %9, align 8
  %19 = getelementptr inbounds %struct.H5EA__test_ctx_t, ptr %18, i32 0, i32 1
  %20 = load ptr, ptr %19, align 8
  %21 = icmp ne ptr %20, null
  br i1 %21, label %22, label %53

22:                                               ; preds = %4
  %23 = load ptr, ptr %9, align 8
  %24 = getelementptr inbounds %struct.H5EA__test_ctx_t, ptr %23, i32 0, i32 1
  %25 = load ptr, ptr %24, align 8
  %26 = getelementptr inbounds %struct.H5EA__ctx_cb_t, ptr %25, i32 0, i32 0
  %27 = load ptr, ptr %26, align 8
  %28 = load ptr, ptr %10, align 8
  %29 = load i64, ptr %7, align 8
  %30 = load ptr, ptr %9, align 8
  %31 = getelementptr inbounds %struct.H5EA__test_ctx_t, ptr %30, i32 0, i32 1
  %32 = load ptr, ptr %31, align 8
  %33 = getelementptr inbounds %struct.H5EA__ctx_cb_t, ptr %32, i32 0, i32 1
  %34 = load ptr, ptr %33, align 8
  %35 = call i32 %27(ptr noundef %28, i64 noundef %29, ptr noundef %34)
  %36 = icmp slt i32 %35, 0
  br i1 %36, label %37, label %52

37:                                               ; preds = %22
  br label %38

38:                                               ; preds = %37
  br label %39

39:                                               ; preds = %38
  br label %40

40:                                               ; preds = %39
  %41 = load i64, ptr @H5E_EARRAY_g, align 8
  %42 = load i64, ptr @H5E_BADVALUE_g, align 8
  %43 = call i32 (ptr, ptr, i32, i64, i64, ptr, ...) @H5E_printf_stack(ptr noundef @.str.1, ptr noundef @__func__.H5EA__test_encode, i32 noundef 221, i64 noundef %41, i64 noundef %42, ptr noundef @.str.4)
  br label %44

44:                                               ; preds = %40
  store i8 1, ptr %12, align 1
  %45 = load i8, ptr %12, align 1
  %46 = trunc i8 %45 to i1
  %47 = zext i1 %46 to i8
  store i8 %47, ptr %12, align 1
  br label %48

48:                                               ; preds = %44
  br label %49

49:                                               ; preds = %48
  store i32 -1, ptr %11, align 4
  br label %95

50:                                               ; No predecessors!
  br label %51

51:                                               ; preds = %50
  br label %52

52:                                               ; preds = %51, %22
  br label %53

53:                                               ; preds = %52, %4
  br label %54

54:                                               ; preds = %89, %53
  %55 = load i64, ptr %7, align 8
  %56 = icmp ne i64 %55, 0
  br i1 %56, label %57, label %94

57:                                               ; preds = %54
  br label %58

58:                                               ; preds = %57
  %59 = load ptr, ptr %10, align 8
  %60 = load i64, ptr %59, align 8
  store i64 %60, ptr %13, align 8
  %61 = load ptr, ptr %5, align 8
  store ptr %61, ptr %15, align 8
  store i64 0, ptr %14, align 8
  br label %62

62:                                               ; preds = %71, %58
  %63 = load i64, ptr %14, align 8
  %64 = icmp ult i64 %63, 8
  br i1 %64, label %65, label %76

65:                                               ; preds = %62
  %66 = load i64, ptr %13, align 8
  %67 = and i64 %66, 255
  %68 = trunc i64 %67 to i8
  %69 = load ptr, ptr %15, align 8
  %70 = getelementptr inbounds i8, ptr %69, i32 1
  store ptr %70, ptr %15, align 8
  store i8 %68, ptr %69, align 1
  br label %71

71:                                               ; preds = %65
  %72 = load i64, ptr %14, align 8
  %73 = add i64 %72, 1
  store i64 %73, ptr %14, align 8
  %74 = load i64, ptr %13, align 8
  %75 = lshr i64 %74, 8
  store i64 %75, ptr %13, align 8
  br label %62

76:                                               ; preds = %62
  br label %77

77:                                               ; preds = %83, %76
  %78 = load i64, ptr %14, align 8
  %79 = icmp ult i64 %78, 8
  br i1 %79, label %80, label %86

80:                                               ; preds = %77
  %81 = load ptr, ptr %15, align 8
  %82 = getelementptr inbounds i8, ptr %81, i32 1
  store ptr %82, ptr %15, align 8
  store i8 0, ptr %81, align 1
  br label %83

83:                                               ; preds = %80
  %84 = load i64, ptr %14, align 8
  %85 = add i64 %84, 1
  store i64 %85, ptr %14, align 8
  br label %77

86:                                               ; preds = %77
  %87 = load ptr, ptr %5, align 8
  %88 = getelementptr inbounds i8, ptr %87, i64 8
  store ptr %88, ptr %5, align 8
  br label %89

89:                                               ; preds = %86
  %90 = load ptr, ptr %10, align 8
  %91 = getelementptr inbounds i64, ptr %90, i32 1
  store ptr %91, ptr %10, align 8
  %92 = load i64, ptr %7, align 8
  %93 = add i64 %92, -1
  store i64 %93, ptr %7, align 8
  br label %54

94:                                               ; preds = %54
  br label %95

95:                                               ; preds = %94, %49
  %96 = load i32, ptr %11, align 4
  ret i32 %96
}