; Function Attrs: nounwind uwtable
define internal range(i32 -1, 1) i32 @H5EA__test_encode(ptr noundef writeonly captures(none) %0, ptr noundef %1, i64 noundef %2, ptr noundef readonly captures(none) %3) #0 {
  %5 = getelementptr inbounds nuw i8, ptr %3, i64 8
  %6 = load ptr, ptr %5, align 8
  %.not = icmp eq ptr %6, null
  br i1 %.not, label %17, label %7

7:                                                ; preds = %4
  %8 = load ptr, ptr %6, align 8
  %9 = getelementptr inbounds nuw i8, ptr %6, i64 8
  %10 = load ptr, ptr %9, align 8
  %11 = tail call i32 %8(ptr noundef %1, i64 noundef %2, ptr noundef %10) #7
  %12 = icmp slt i32 %11, 0
  br i1 %12, label %13, label %17

13:                                               ; preds = %7
  %14 = load i64, ptr @H5E_EARRAY_g, align 8
  %15 = load i64, ptr @H5E_BADVALUE_g, align 8
  %16 = tail call i32 (ptr, ptr, i32, i64, i64, ptr, ...) @H5E_printf_stack(ptr noundef nonnull @.str.1, ptr noundef nonnull @__func__.H5EA__test_encode, i32 noundef 221, i64 noundef %14, i64 noundef %15, ptr noundef nonnull @.str.4) #7
  br label %.loopexit

17:                                               ; preds = %7, %4
  %.not3034 = icmp eq i64 %2, 0
  br i1 %.not3034, label %.loopexit, label %.lr.ph

.lr.ph:                                           ; preds = %17, %24
  %.02637 = phi ptr [ %26, %24 ], [ %1, %17 ]
  %.02736 = phi ptr [ %25, %24 ], [ %0, %17 ]
  %.02835 = phi i64 [ %27, %24 ], [ %2, %17 ]
  %18 = load i64, ptr %.02637, align 8
  br label %19

19:                                               ; preds = %.lr.ph, %19
  %.033 = phi ptr [ %.02736, %.lr.ph ], [ %21, %19 ]
  %.02232 = phi i64 [ 0, %.lr.ph ], [ %22, %19 ]
  %.02431 = phi i64 [ %18, %.lr.ph ], [ %23, %19 ]
  %20 = trunc i64 %.02431 to i8
  %21 = getelementptr inbounds nuw i8, ptr %.033, i64 1
  store i8 %20, ptr %.033, align 1
  %22 = add nuw nsw i64 %.02232, 1
  %23 = lshr i64 %.02431, 8
  %exitcond.not = icmp eq i64 %22, 8
  br i1 %exitcond.not, label %24, label %19

24:                                               ; preds = %19
  %25 = getelementptr inbounds nuw i8, ptr %.02736, i64 8
  %26 = getelementptr inbounds nuw i8, ptr %.02637, i64 8
  %27 = add i64 %.02835, -1
  %.not30 = icmp eq i64 %27, 0
  br i1 %.not30, label %.loopexit, label %.lr.ph

.loopexit:                                        ; preds = %24, %17, %13
  %.025 = phi i32 [ -1, %13 ], [ 0, %17 ], [ 0, %24 ]
  ret i32 %.025
}